target datalayout = "e-m:e-p270:32:32-p271:32:32-p272:64:64-i64:64-i128:128-f80:128-n8:16:32:64-S128"
target triple = "x86_64-pc-linux-gnu"

%struct.P9Req = type { ptr, ptr, i16, i64, i32, i64, i64, i64, i32 }

@.str = private unnamed_addr constant [46 x i8] c"../qemu/tests/qtest/libqos/virtio-9p-client.c\00", align 1
@.str.2 = private unnamed_addr constant [3 x i8] c"<=\00", align 1
@__func__.v9fs_string_write = private unnamed_addr constant [18 x i8] c"v9fs_string_write\00", align 1
@.str.3 = private unnamed_addr constant [18 x i8] c"len <= UINT16_MAX\00", align 1

; Function Attrs: inlinehint nounwind sspstrong uwtable
define internal zeroext i16 @cpu_to_le16(i16 noundef zeroext %0) #3 {
  %2 = alloca i16, align 2
  store i16 %0, ptr %2, align 2
  %3 = load i16, ptr %2, align 2
  ret i16 %3
}

; Function Attrs: nounwind sspstrong uwtable
define dso_local void @v9fs_memwrite(ptr noundef %0, ptr noundef %1, i64 noundef %2) #0 {
  %4 = alloca ptr, align 8
  %5 = alloca ptr, align 8
  %6 = alloca i64, align 8
  store ptr %0, ptr %4, align 8
  store ptr %1, ptr %5, align 8
  store i64 %2, ptr %6, align 8
  %7 = load ptr, ptr %4, align 8
  %8 = getelementptr inbounds nuw %struct.P9Req, ptr %7, i32 0, i32 0
  %9 = load ptr, ptr %8, align 8
  %10 = load ptr, ptr %4, align 8
  %11 = getelementptr inbounds nuw %struct.P9Req, ptr %10, i32 0, i32 3
  %12 = load i64, ptr %11, align 8
  %13 = load ptr, ptr %4, align 8
  %14 = getelementptr inbounds nuw %struct.P9Req, ptr %13, i32 0, i32 6
  %15 = load i64, ptr %14, align 8
  %16 = add i64 %12, %15
  %17 = load ptr, ptr %5, align 8
  %18 = load i64, ptr %6, align 8
  call void @qtest_memwrite(ptr noundef %9, i64 noundef %16, ptr noundef %17, i64 noundef %18)
  %19 = load i64, ptr %6, align 8
  %20 = load ptr, ptr %4, align 8
  %21 = getelementptr inbounds nuw %struct.P9Req, ptr %20, i32 0, i32 6
  %22 = load i64, ptr %21, align 8
  %23 = add i64 %22, %19
  store i64 %23, ptr %21, align 8
  ret void
}

; Function Attrs: nounwind sspstrong uwtable
define dso_local void @v9fs_uint16_write(ptr noundef %0, i16 noundef zeroext %1) #0 {
  %3 = alloca ptr, align 8
  %4 = alloca i16, align 2
  %5 = alloca i16, align 2
  store ptr %0, ptr %3, align 8
  store i16 %1, ptr %4, align 2
  call void @llvm.lifetime.start.p0(i64 2, ptr %5) #13
  %6 = load i16, ptr %4, align 2
  %7 = call zeroext i16 @cpu_to_le16(i16 noundef zeroext %6)
  store i16 %7, ptr %5, align 2
  %8 = load ptr, ptr %3, align 8
  call void @v9fs_memwrite(ptr noundef %8, ptr noundef %5, i64 noundef 2)
  call void @llvm.lifetime.end.p0(i64 2, ptr %5) #13
  ret void
}

; Function Attrs: nounwind sspstrong uwtable
define dso_local void @v9fs_string_write(ptr noundef %0, ptr noundef %1) #0 {
  %3 = alloca ptr, align 8
  %4 = alloca ptr, align 8
  %5 = alloca i32, align 4
  %6 = alloca i64, align 8
  %7 = alloca i64, align 8
  store ptr %0, ptr %3, align 8
  store ptr %1, ptr %4, align 8
  call void @llvm.lifetime.start.p0(i64 4, ptr %5) #13
  %8 = load ptr, ptr %4, align 8
  %9 = call i64 @strlen(ptr noundef %8) #14
  %10 = trunc i64 %9 to i32
  store i32 %10, ptr %5, align 4
  br label %11

11:                                               ; preds = %2
  call void @llvm.lifetime.start.p0(i64 8, ptr %6) #13
  %12 = load i32, ptr %5, align 4
  %13 = sext i32 %12 to i64
  store i64 %13, ptr %6, align 8
  call void @llvm.lifetime.start.p0(i64 8, ptr %7) #13
  store i64 65535, ptr %7, align 8
  %14 = load i64, ptr %6, align 8
  %15 = load i64, ptr %7, align 8
  %16 = icmp sle i64 %14, %15
  br i1 %16, label %17, label %18

17:                                               ; preds = %11
  br label %23

18:                                               ; preds = %11
  %19 = load i64, ptr %6, align 8
  %20 = sitofp i64 %19 to x86_fp80
  %21 = load i64, ptr %7, align 8
  %22 = sitofp i64 %21 to x86_fp80
  call void @g_assertion_message_cmpnum(ptr noundef null, ptr noundef @.str, i32 noundef 160, ptr noundef @__func__.v9fs_string_write, ptr noundef @.str.3, x86_fp80 noundef %20, ptr noundef @.str.2, x86_fp80 noundef %22, i8 noundef signext 105)
  br label %23

23:                                               ; preds = %18, %17
  call void @llvm.lifetime.end.p0(i64 8, ptr %7) #13
  call void @llvm.lifetime.end.p0(i64 8, ptr %6) #13
  br label %24

24:                                               ; preds = %23
  br label %25

25:                                               ; preds = %24
  %26 = load ptr, ptr %3, align 8
  %27 = load i32, ptr %5, align 4
  %28 = trunc i32 %27 to i16
  call void @v9fs_uint16_write(ptr noundef %26, i16 noundef zeroext %28)
  %29 = load ptr, ptr %3, align 8
  %30 = load ptr, ptr %4, align 8
  %31 = load i32, ptr %5, align 4
  %32 = sext i32 %31 to i64
  call void @v9fs_memwrite(ptr noundef %29, ptr noundef %30, i64 noundef %32)
  call void @llvm.lifetime.end.p0(i64 4, ptr %5) #13
  ret void
}