; Function Attrs: nounwind sspstrong uwtable
define dso_local void @v9fs_string_write(ptr noundef captures(none) %0, ptr noundef %1) local_unnamed_addr #1 {
  %3 = alloca i16, align 2
  %4 = tail call i64 @strlen(ptr noundef nonnull dereferenceable(1) %1) #15
  %sext = shl i64 %4, 32
  %5 = ashr exact i64 %sext, 32
  %6 = icmp slt i64 %5, 65536
  br i1 %6, label %9, label %7

7:                                                ; preds = %2
  %8 = uitofp nneg i64 %5 to x86_fp80
  tail call void @g_assertion_message_cmpnum(ptr noundef null, ptr noundef nonnull @.str, i32 noundef 160, ptr noundef nonnull @__func__.v9fs_string_write, ptr noundef nonnull @.str.3, x86_fp80 noundef %8, ptr noundef nonnull @.str.2, x86_fp80 noundef 0xK400EFFFF000000000000, i8 noundef signext 105) #14
  br label %9

9:                                                ; preds = %2, %7
  %10 = trunc i64 %4 to i16
  call void @llvm.lifetime.start.p0(i64 2, ptr nonnull %3) #14
  store i16 %10, ptr %3, align 2
  %11 = load ptr, ptr %0, align 8
  %12 = getelementptr inbounds nuw i8, ptr %0, i64 24
  %13 = load i64, ptr %12, align 8
  %14 = getelementptr inbounds nuw i8, ptr %0, i64 48
  %15 = load i64, ptr %14, align 8
  %16 = add i64 %15, %13
  call void @qtest_memwrite(ptr noundef %11, i64 noundef %16, ptr noundef nonnull %3, i64 noundef 2) #14
  %17 = load i64, ptr %14, align 8
  %18 = add i64 %17, 2
  store i64 %18, ptr %14, align 8
  call void @llvm.lifetime.end.p0(i64 2, ptr nonnull %3) #14
  %19 = load ptr, ptr %0, align 8
  %20 = load i64, ptr %12, align 8
  %21 = add i64 %20, %18
  call void @qtest_memwrite(ptr noundef %19, i64 noundef %21, ptr noundef nonnull %1, i64 noundef %5) #14
  %22 = load i64, ptr %14, align 8
  %23 = add i64 %22, %5
  store i64 %23, ptr %14, align 8
  ret void
}